target datalayout = "e-m:e-p270:32:32-p271:32:32-p272:64:64-i64:64-i128:128-f80:128-n8:16:32:64-S128"
target triple = "x86_64-pc-linux-gnu"

%struct.tsi_fake_frame = type { ptr, i64, i64, i64, i32 }
%struct.tsi_fake_frame_protector = type { %struct.tsi_frame_protector, %struct.tsi_fake_frame, %struct.tsi_fake_frame, i64 }
%struct.tsi_frame_protector = type { ptr }
%"class.std::__cxx11::basic_string" = type { %"struct.std::__cxx11::basic_string<char>::_Alloc_hider", i64, %union.anon }
%"struct.std::__cxx11::basic_string<char>::_Alloc_hider" = type { ptr }
%union.anon = type { i64, [8 x i8] }

@.str.23 = private unnamed_addr constant [26 x i8] c"fake frame needs draining\00", align 1

; Function Attrs: mustprogress nounwind uwtable
define linkonce_odr noundef i64 @_ZNSt11char_traitsIcE6lengthEPKc(ptr noundef %0) #7 comdat align 2 {
  %2 = alloca ptr, align 8
  store ptr %0, ptr %2, align 8, !tbaa !12
  %3 = load ptr, ptr %2, align 8, !tbaa !12
  %4 = call i64 @strlen(ptr noundef %3) #3
  ret i64 %4
}

; Function Attrs: mustprogress nounwind uwtable
define available_externally noundef i64 @_ZNKSt7__cxx1112basic_stringIcSt11char_traitsIcESaIcEE4sizeEv(ptr noundef nonnull align 8 dereferenceable(32) %0) #7 align 2 {
  %2 = alloca ptr, align 8
  store ptr %0, ptr %2, align 8, !tbaa !25
  %3 = load ptr, ptr %2, align 8
  %4 = getelementptr inbounds nuw %"class.std::__cxx11::basic_string", ptr %3, i32 0, i32 1
  %5 = load i64, ptr %4, align 8, !tbaa !87
  ret i64 %5
}

; Function Attrs: mustprogress uwtable
define available_externally noundef nonnull align 8 dereferenceable(32) ptr @_ZNSt7__cxx1112basic_stringIcSt11char_traitsIcESaIcEE6assignEPKc(ptr noundef nonnull align 8 dereferenceable(32) %0, ptr noundef %1) #4 align 2 {
  %3 = alloca ptr, align 8
  %4 = alloca ptr, align 8
  store ptr %0, ptr %3, align 8, !tbaa !25
  store ptr %1, ptr %4, align 8, !tbaa !12
  %5 = load ptr, ptr %3, align 8
  %6 = call noundef i64 @_ZNKSt7__cxx1112basic_stringIcSt11char_traitsIcESaIcEE4sizeEv(ptr noundef nonnull align 8 dereferenceable(32) %5) #3
  %7 = load ptr, ptr %4, align 8, !tbaa !12
  %8 = load ptr, ptr %4, align 8, !tbaa !12
  %9 = call noundef i64 @_ZNSt11char_traitsIcE6lengthEPKc(ptr noundef %8)
  %10 = call noundef nonnull align 8 dereferenceable(32) ptr @_ZNSt7__cxx1112basic_stringIcSt11char_traitsIcESaIcEE10_M_replaceEmmPKcm(ptr noundef nonnull align 8 dereferenceable(32) %5, i64 noundef 0, i64 noundef %6, ptr noundef %7, i64 noundef %9)
  ret ptr %10
}

; Function Attrs: mustprogress nounwind uwtable
define internal void @_ZL20tsi_fake_frame_resetP14tsi_fake_framei(ptr noundef %0, i32 noundef %1) #7 {
  %3 = alloca ptr, align 8
  %4 = alloca i32, align 4
  store ptr %0, ptr %3, align 8, !tbaa !105
  store i32 %1, ptr %4, align 4, !tbaa !23
  %5 = load ptr, ptr %3, align 8, !tbaa !105
  %6 = getelementptr inbounds nuw %struct.tsi_fake_frame, ptr %5, i32 0, i32 3
  store i64 0, ptr %6, align 8, !tbaa !121
  %7 = load i32, ptr %4, align 4, !tbaa !23
  %8 = load ptr, ptr %3, align 8, !tbaa !105
  %9 = getelementptr inbounds nuw %struct.tsi_fake_frame, ptr %8, i32 0, i32 4
  store i32 %7, ptr %9, align 8, !tbaa !119
  %10 = load i32, ptr %4, align 4, !tbaa !23
  %11 = icmp ne i32 %10, 0
  br i1 %11, label %15, label %12

12:                                               ; preds = %2
  %13 = load ptr, ptr %3, align 8, !tbaa !105
  %14 = getelementptr inbounds nuw %struct.tsi_fake_frame, ptr %13, i32 0, i32 1
  store i64 0, ptr %14, align 8, !tbaa !122
  br label %15

15:                                               ; preds = %12, %2
  ret void
}

; Function Attrs: mustprogress uwtable
define available_externally noundef nonnull align 8 dereferenceable(32) ptr @_ZNSt7__cxx1112basic_stringIcSt11char_traitsIcESaIcEEaSEPKc(ptr noundef nonnull align 8 dereferenceable(32) %0, ptr noundef %1) #4 align 2 {
  %3 = alloca ptr, align 8
  %4 = alloca ptr, align 8
  store ptr %0, ptr %3, align 8, !tbaa !25
  store ptr %1, ptr %4, align 8, !tbaa !12
  %5 = load ptr, ptr %3, align 8
  %6 = load ptr, ptr %4, align 8, !tbaa !12
  %7 = call noundef nonnull align 8 dereferenceable(32) ptr @_ZNSt7__cxx1112basic_stringIcSt11char_traitsIcESaIcEE6assignEPKc(ptr noundef nonnull align 8 dereferenceable(32) %5, ptr noundef %6)
  ret ptr %7
}

; Function Attrs: mustprogress uwtable
define internal noundef i32 @_ZL21tsi_fake_frame_encodePhPmP14tsi_fake_framePNSt7__cxx1112basic_stringIcSt11char_traitsIcESaIcEEE(ptr noundef %0, ptr noundef %1, ptr noundef %2, ptr noundef %3) #4 {
  %5 = alloca i32, align 4
  %6 = alloca ptr, align 8
  %7 = alloca ptr, align 8
  %8 = alloca ptr, align 8
  %9 = alloca ptr, align 8
  %10 = alloca i64, align 8
  %11 = alloca i32, align 4
  store ptr %0, ptr %6, align 8, !tbaa !12
  store ptr %1, ptr %7, align 8, !tbaa !43
  store ptr %2, ptr %8, align 8, !tbaa !105
  store ptr %3, ptr %9, align 8, !tbaa !25
  call void @llvm.lifetime.start.p0(i64 8, ptr %10) #3
  %12 = load ptr, ptr %8, align 8, !tbaa !105
  %13 = getelementptr inbounds nuw %struct.tsi_fake_frame, ptr %12, i32 0, i32 1
  %14 = load i64, ptr %13, align 8, !tbaa !122
  %15 = load ptr, ptr %8, align 8, !tbaa !105
  %16 = getelementptr inbounds nuw %struct.tsi_fake_frame, ptr %15, i32 0, i32 3
  %17 = load i64, ptr %16, align 8, !tbaa !121
  %18 = sub i64 %14, %17
  store i64 %18, ptr %10, align 8, !tbaa !14
  %19 = load ptr, ptr %8, align 8, !tbaa !105
  %20 = getelementptr inbounds nuw %struct.tsi_fake_frame, ptr %19, i32 0, i32 4
  %21 = load i32, ptr %20, align 8, !tbaa !119
  %22 = icmp ne i32 %21, 0
  br i1 %22, label %30, label %23

23:                                               ; preds = %4
  %24 = load ptr, ptr %9, align 8, !tbaa !25
  %25 = icmp ne ptr %24, null
  br i1 %25, label %26, label %29

26:                                               ; preds = %23
  %27 = load ptr, ptr %9, align 8, !tbaa !25
  %28 = call noundef nonnull align 8 dereferenceable(32) ptr @_ZNSt7__cxx1112basic_stringIcSt11char_traitsIcESaIcEEaSEPKc(ptr noundef nonnull align 8 dereferenceable(32) %27, ptr noundef @.str.23)
  br label %29

29:                                               ; preds = %26, %23
  store i32 7, ptr %5, align 4
  store i32 1, ptr %11, align 4
  br label %65

30:                                               ; preds = %4
  %31 = load ptr, ptr %7, align 8, !tbaa !43
  %32 = load i64, ptr %31, align 8, !tbaa !14
  %33 = load i64, ptr %10, align 8, !tbaa !14
  %34 = icmp ult i64 %32, %33
  br i1 %34, label %35, label %52

35:                                               ; preds = %30
  %36 = load ptr, ptr %6, align 8, !tbaa !12
  %37 = load ptr, ptr %8, align 8, !tbaa !105
  %38 = getelementptr inbounds nuw %struct.tsi_fake_frame, ptr %37, i32 0, i32 0
  %39 = load ptr, ptr %38, align 8, !tbaa !107
  %40 = load ptr, ptr %8, align 8, !tbaa !105
  %41 = getelementptr inbounds nuw %struct.tsi_fake_frame, ptr %40, i32 0, i32 3
  %42 = load i64, ptr %41, align 8, !tbaa !121
  %43 = getelementptr inbounds nuw i8, ptr %39, i64 %42
  %44 = load ptr, ptr %7, align 8, !tbaa !43
  %45 = load i64, ptr %44, align 8, !tbaa !14
  call void @llvm.memcpy.p0.p0.i64(ptr align 1 %36, ptr align 1 %43, i64 %45, i1 false)
  %46 = load ptr, ptr %7, align 8, !tbaa !43
  %47 = load i64, ptr %46, align 8, !tbaa !14
  %48 = load ptr, ptr %8, align 8, !tbaa !105
  %49 = getelementptr inbounds nuw %struct.tsi_fake_frame, ptr %48, i32 0, i32 3
  %50 = load i64, ptr %49, align 8, !tbaa !121
  %51 = add i64 %50, %47
  store i64 %51, ptr %49, align 8, !tbaa !121
  store i32 4, ptr %5, align 4
  store i32 1, ptr %11, align 4
  br label %65

52:                                               ; preds = %30
  %53 = load ptr, ptr %6, align 8, !tbaa !12
  %54 = load ptr, ptr %8, align 8, !tbaa !105
  %55 = getelementptr inbounds nuw %struct.tsi_fake_frame, ptr %54, i32 0, i32 0
  %56 = load ptr, ptr %55, align 8, !tbaa !107
  %57 = load ptr, ptr %8, align 8, !tbaa !105
  %58 = getelementptr inbounds nuw %struct.tsi_fake_frame, ptr %57, i32 0, i32 3
  %59 = load i64, ptr %58, align 8, !tbaa !121
  %60 = getelementptr inbounds nuw i8, ptr %56, i64 %59
  %61 = load i64, ptr %10, align 8, !tbaa !14
  call void @llvm.memcpy.p0.p0.i64(ptr align 1 %53, ptr align 1 %60, i64 %61, i1 false)
  %62 = load i64, ptr %10, align 8, !tbaa !14
  %63 = load ptr, ptr %7, align 8, !tbaa !43
  store i64 %62, ptr %63, align 8, !tbaa !14
  %64 = load ptr, ptr %8, align 8, !tbaa !105
  call void @_ZL20tsi_fake_frame_resetP14tsi_fake_framei(ptr noundef %64, i32 noundef 0)
  store i32 0, ptr %5, align 4
  store i32 1, ptr %11, align 4
  br label %65

65:                                               ; preds = %52, %35, %29
  call void @llvm.lifetime.end.p0(i64 8, ptr %10) #3
  %66 = load i32, ptr %5, align 4
  ret i32 %66
}

; Function Attrs: mustprogress uwtable
define internal noundef i32 @_ZL24fake_protector_unprotectP19tsi_frame_protectorPKhPmPhS3_(ptr noundef %0, ptr noundef %1, ptr noundef %2, ptr noundef %3, ptr noundef %4) #4 {
  %6 = alloca i32, align 4
  %7 = alloca ptr, align 8
  %8 = alloca ptr, align 8
  %9 = alloca ptr, align 8
  %10 = alloca ptr, align 8
  %11 = alloca ptr, align 8
  %12 = alloca i32, align 4
  %13 = alloca ptr, align 8
  %14 = alloca ptr, align 8
  %15 = alloca i64, align 8
  %16 = alloca i64, align 8
  %17 = alloca ptr, align 8
  %18 = alloca i32, align 4
  store ptr %0, ptr %7, align 8, !tbaa !176
  store ptr %1, ptr %8, align 8, !tbaa !12
  store ptr %2, ptr %9, align 8, !tbaa !43
  store ptr %3, ptr %10, align 8, !tbaa !12
  store ptr %4, ptr %11, align 8, !tbaa !43
  call void @llvm.lifetime.start.p0(i64 4, ptr %12) #3
  store i32 0, ptr %12, align 4, !tbaa !100
  call void @llvm.lifetime.start.p0(i64 8, ptr %13) #3
  %19 = load ptr, ptr %7, align 8, !tbaa !176
  store ptr %19, ptr %13, align 8, !tbaa !45
  call void @llvm.lifetime.start.p0(i64 8, ptr %14) #3
  %20 = load ptr, ptr %13, align 8, !tbaa !45
  %21 = getelementptr inbounds nuw %struct.tsi_fake_frame_protector, ptr %20, i32 0, i32 2
  store ptr %21, ptr %14, align 8, !tbaa !105
  call void @llvm.lifetime.start.p0(i64 8, ptr %15) #3
  %22 = load ptr, ptr %11, align 8, !tbaa !43
  %23 = load i64, ptr %22, align 8, !tbaa !14
  store i64 %23, ptr %15, align 8, !tbaa !14
  call void @llvm.lifetime.start.p0(i64 8, ptr %16) #3
  store i64 0, ptr %16, align 8, !tbaa !14
  call void @llvm.lifetime.start.p0(i64 8, ptr %17) #3
  %24 = load ptr, ptr %11, align 8, !tbaa !43
  store ptr %24, ptr %17, align 8, !tbaa !43
  %25 = load ptr, ptr %17, align 8, !tbaa !43
  store i64 0, ptr %25, align 8, !tbaa !14
  %26 = load ptr, ptr %14, align 8, !tbaa !105
  %27 = getelementptr inbounds nuw %struct.tsi_fake_frame, ptr %26, i32 0, i32 4
  %28 = load i32, ptr %27, align 8, !tbaa !119
  %29 = icmp ne i32 %28, 0
  br i1 %29, label %30, label %63

30:                                               ; preds = %5
  %31 = load ptr, ptr %14, align 8, !tbaa !105
  %32 = getelementptr inbounds nuw %struct.tsi_fake_frame, ptr %31, i32 0, i32 3
  %33 = load i64, ptr %32, align 8, !tbaa !121
  %34 = icmp eq i64 %33, 0
  br i1 %34, label %35, label %38

35:                                               ; preds = %30
  %36 = load ptr, ptr %14, align 8, !tbaa !105
  %37 = getelementptr inbounds nuw %struct.tsi_fake_frame, ptr %36, i32 0, i32 3
  store i64 4, ptr %37, align 8, !tbaa !121
  br label %38

38:                                               ; preds = %35, %30
  %39 = load i64, ptr %15, align 8, !tbaa !14
  %40 = load ptr, ptr %17, align 8, !tbaa !43
  %41 = load i64, ptr %40, align 8, !tbaa !14
  %42 = sub i64 %39, %41
  store i64 %42, ptr %16, align 8, !tbaa !14
  %43 = load ptr, ptr %10, align 8, !tbaa !12
  %44 = load ptr, ptr %14, align 8, !tbaa !105
  %45 = call noundef i32 @_ZL21tsi_fake_frame_encodePhPmP14tsi_fake_framePNSt7__cxx1112basic_stringIcSt11char_traitsIcESaIcEEE(ptr noundef %43, ptr noundef %16, ptr noundef %44, ptr noundef null)
  store i32 %45, ptr %12, align 4, !tbaa !100
  %46 = load i64, ptr %16, align 8, !tbaa !14
  %47 = load ptr, ptr %10, align 8, !tbaa !12
  %48 = getelementptr inbounds nuw i8, ptr %47, i64 %46
  store ptr %48, ptr %10, align 8, !tbaa !12
  %49 = load i64, ptr %16, align 8, !tbaa !14
  %50 = load ptr, ptr %17, align 8, !tbaa !43
  %51 = load i64, ptr %50, align 8, !tbaa !14
  %52 = add i64 %51, %49
  store i64 %52, ptr %50, align 8, !tbaa !14
  %53 = load i32, ptr %12, align 4, !tbaa !100
  %54 = icmp ne i32 %53, 0
  br i1 %54, label %55, label %62

55:                                               ; preds = %38
  %56 = load i32, ptr %12, align 4, !tbaa !100
  %57 = icmp eq i32 %56, 4
  br i1 %57, label %58, label %60

58:                                               ; preds = %55
  %59 = load ptr, ptr %9, align 8, !tbaa !43
  store i64 0, ptr %59, align 8, !tbaa !14
  store i32 0, ptr %12, align 4, !tbaa !100
  br label %60

60:                                               ; preds = %58, %55
  %61 = load i32, ptr %12, align 4, !tbaa !100
  store i32 %61, ptr %6, align 4
  store i32 1, ptr %18, align 4
  br label %113

62:                                               ; preds = %38
  br label %63

63:                                               ; preds = %62, %5
  %64 = load ptr, ptr %14, align 8, !tbaa !105
  %65 = getelementptr inbounds nuw %struct.tsi_fake_frame, ptr %64, i32 0, i32 4
  %66 = load i32, ptr %65, align 8, !tbaa !119
  %67 = icmp ne i32 %66, 0
  br i1 %67, label %68, label %69

68:                                               ; preds = %63
  store i32 7, ptr %6, align 4
  store i32 1, ptr %18, align 4
  br label %113

69:                                               ; preds = %63
  %70 = load ptr, ptr %8, align 8, !tbaa !12
  %71 = load ptr, ptr %9, align 8, !tbaa !43
  %72 = load ptr, ptr %14, align 8, !tbaa !105
  %73 = call noundef i32 @_ZL21tsi_fake_frame_decodePKhPmP14tsi_fake_framePNSt7__cxx1112basic_stringIcSt11char_traitsIcESaIcEEE(ptr noundef %70, ptr noundef %71, ptr noundef %72, ptr noundef null)
  store i32 %73, ptr %12, align 4, !tbaa !100
  %74 = load i32, ptr %12, align 4, !tbaa !100
  %75 = icmp ne i32 %74, 0
  br i1 %75, label %76, label %82

76:                                               ; preds = %69
  %77 = load i32, ptr %12, align 4, !tbaa !100
  %78 = icmp eq i32 %77, 4
  br i1 %78, label %79, label %80

79:                                               ; preds = %76
  store i32 0, ptr %12, align 4, !tbaa !100
  br label %80

80:                                               ; preds = %79, %76
  %81 = load i32, ptr %12, align 4, !tbaa !100
  store i32 %81, ptr %6, align 4
  store i32 1, ptr %18, align 4
  br label %113

82:                                               ; preds = %69
  %83 = load ptr, ptr %14, align 8, !tbaa !105
  %84 = getelementptr inbounds nuw %struct.tsi_fake_frame, ptr %83, i32 0, i32 4
  %85 = load i32, ptr %84, align 8, !tbaa !119
  %86 = icmp ne i32 %85, 0
  br i1 %86, label %88, label %87

87:                                               ; preds = %82
  store i32 7, ptr %6, align 4
  store i32 1, ptr %18, align 4
  br label %113

88:                                               ; preds = %82
  %89 = load ptr, ptr %14, align 8, !tbaa !105
  %90 = getelementptr inbounds nuw %struct.tsi_fake_frame, ptr %89, i32 0, i32 3
  %91 = load i64, ptr %90, align 8, !tbaa !121
  %92 = icmp ne i64 %91, 0
  br i1 %92, label %93, label %94

93:                                               ; preds = %88
  store i32 7, ptr %6, align 4
  store i32 1, ptr %18, align 4
  br label %113

94:                                               ; preds = %88
  %95 = load ptr, ptr %14, align 8, !tbaa !105
  %96 = getelementptr inbounds nuw %struct.tsi_fake_frame, ptr %95, i32 0, i32 3
  store i64 4, ptr %96, align 8, !tbaa !121
  %97 = load i64, ptr %15, align 8, !tbaa !14
  %98 = load ptr, ptr %17, align 8, !tbaa !43
  %99 = load i64, ptr %98, align 8, !tbaa !14
  %100 = sub i64 %97, %99
  store i64 %100, ptr %16, align 8, !tbaa !14
  %101 = load ptr, ptr %10, align 8, !tbaa !12
  %102 = load ptr, ptr %14, align 8, !tbaa !105
  %103 = call noundef i32 @_ZL21tsi_fake_frame_encodePhPmP14tsi_fake_framePNSt7__cxx1112basic_stringIcSt11char_traitsIcESaIcEEE(ptr noundef %101, ptr noundef %16, ptr noundef %102, ptr noundef null)
  store i32 %103, ptr %12, align 4, !tbaa !100
  %104 = load i64, ptr %16, align 8, !tbaa !14
  %105 = load ptr, ptr %17, align 8, !tbaa !43
  %106 = load i64, ptr %105, align 8, !tbaa !14
  %107 = add i64 %106, %104
  store i64 %107, ptr %105, align 8, !tbaa !14
  %108 = load i32, ptr %12, align 4, !tbaa !100
  %109 = icmp eq i32 %108, 4
  br i1 %109, label %110, label %111

110:                                              ; preds = %94
  store i32 0, ptr %12, align 4, !tbaa !100
  br label %111

111:                                              ; preds = %110, %94
  %112 = load i32, ptr %12, align 4, !tbaa !100
  store i32 %112, ptr %6, align 4
  store i32 1, ptr %18, align 4
  br label %113

113:                                              ; preds = %111, %93, %87, %80, %68, %60
  call void @llvm.lifetime.end.p0(i64 8, ptr %17) #3
  call void @llvm.lifetime.end.p0(i64 8, ptr %16) #3
  call void @llvm.lifetime.end.p0(i64 8, ptr %15) #3
  call void @llvm.lifetime.end.p0(i64 8, ptr %14) #3
  call void @llvm.lifetime.end.p0(i64 8, ptr %13) #3
  call void @llvm.lifetime.end.p0(i64 4, ptr %12) #3
  %114 = load i32, ptr %6, align 4
  ret i32 %114
}