; Function Attrs: mustprogress uwtable
define internal noundef range(i32 0, 9) i32 @_ZL24fake_protector_unprotectP19tsi_frame_protectorPKhPmPhS3_(ptr noundef captures(none) %0, ptr noundef %1, ptr noundef captures(none) %2, ptr noundef writeonly captures(none) %3, ptr noundef captures(none) %4) #3 {
  %6 = getelementptr inbounds nuw i8, ptr %0, i64 48
  %7 = load i64, ptr %4, align 8, !tbaa !40
  store i64 0, ptr %4, align 8, !tbaa !40
  %8 = getelementptr inbounds nuw i8, ptr %0, i64 80
  %9 = load i32, ptr %8, align 8, !tbaa !59
  %.not = icmp eq i32 %9, 0
  br i1 %.not, label %.thread, label %10

10:                                               ; preds = %5
  %11 = getelementptr inbounds nuw i8, ptr %0, i64 72
  %12 = load i64, ptr %11, align 8, !tbaa !58
  %13 = icmp eq i64 %12, 0
  br i1 %13, label %14, label %15

14:                                               ; preds = %10
  store i64 4, ptr %11, align 8, !tbaa !58
  %.pre = load i64, ptr %4, align 8, !tbaa !40
  br label %15

15:                                               ; preds = %10, %14
  %16 = phi i64 [ 4, %14 ], [ %12, %10 ]
  %17 = phi i64 [ %.pre, %14 ], [ 0, %10 ]
  %18 = sub i64 %7, %17
  %19 = getelementptr inbounds nuw i8, ptr %0, i64 56
  %20 = load i64, ptr %19, align 8, !tbaa !60
  %21 = sub i64 %20, %16
  %22 = icmp ult i64 %18, %21
  %23 = load ptr, ptr %6, align 8, !tbaa !54
  %24 = getelementptr inbounds nuw i8, ptr %23, i64 %16
  br i1 %22, label %25, label %30

25:                                               ; preds = %15
  tail call void @llvm.memcpy.p0.p0.i64(ptr align 1 %3, ptr nonnull align 1 %24, i64 %18, i1 false)
  %26 = load i64, ptr %11, align 8, !tbaa !58
  %27 = add i64 %26, %18
  store i64 %27, ptr %11, align 8, !tbaa !58
  %28 = load i64, ptr %4, align 8, !tbaa !40
  %29 = add i64 %28, %18
  store i64 %29, ptr %4, align 8, !tbaa !40
  store i64 0, ptr %2, align 8, !tbaa !40
  br label %57

30:                                               ; preds = %15
  tail call void @llvm.memcpy.p0.p0.i64(ptr align 1 %3, ptr nonnull align 1 %24, i64 %21, i1 false)
  store i64 0, ptr %11, align 8, !tbaa !58
  store i32 0, ptr %8, align 8, !tbaa !59
  store i64 0, ptr %19, align 8, !tbaa !60
  %31 = getelementptr inbounds nuw i8, ptr %3, i64 %21
  %32 = load i64, ptr %4, align 8, !tbaa !40
  %33 = add i64 %32, %21
  store i64 %33, ptr %4, align 8, !tbaa !40
  br label %.thread

.thread:                                          ; preds = %30, %5
  %.03661 = phi ptr [ %31, %30 ], [ %3, %5 ]
  %34 = tail call fastcc noundef i32 @_ZL21tsi_fake_frame_decodePKhPmP14tsi_fake_framePNSt7__cxx1112basic_stringIcSt11char_traitsIcESaIcEEE(ptr noundef %1, ptr noundef %2, ptr noundef nonnull %6, ptr noundef null)
  %.not42 = icmp eq i32 %34, 0
  br i1 %.not42, label %37, label %35

35:                                               ; preds = %.thread
  %36 = icmp eq i32 %34, 4
  %spec.store.select = select i1 %36, i32 0, i32 %34
  br label %57

37:                                               ; preds = %.thread
  %38 = load i32, ptr %8, align 8, !tbaa !59
  %.not43 = icmp eq i32 %38, 0
  br i1 %.not43, label %57, label %39

39:                                               ; preds = %37
  %40 = getelementptr inbounds nuw i8, ptr %0, i64 72
  %41 = load i64, ptr %40, align 8, !tbaa !58
  %.not44 = icmp eq i64 %41, 0
  br i1 %.not44, label %42, label %57

42:                                               ; preds = %39
  store i64 4, ptr %40, align 8, !tbaa !58
  %43 = load i64, ptr %4, align 8, !tbaa !40
  %44 = sub i64 %7, %43
  %45 = getelementptr inbounds nuw i8, ptr %0, i64 56
  %46 = load i64, ptr %45, align 8, !tbaa !60
  %47 = add i64 %46, -4
  %48 = icmp ult i64 %44, %47
  %49 = load ptr, ptr %6, align 8, !tbaa !54
  %50 = getelementptr inbounds nuw i8, ptr %49, i64 4
  br i1 %48, label %52, label %_ZL21tsi_fake_frame_encodePhPmP14tsi_fake_framePNSt7__cxx1112basic_stringIcSt11char_traitsIcESaIcEEE.exit47.thread

_ZL21tsi_fake_frame_encodePhPmP14tsi_fake_framePNSt7__cxx1112basic_stringIcSt11char_traitsIcESaIcEEE.exit47.thread: ; preds = %42
  tail call void @llvm.memcpy.p0.p0.i64(ptr align 1 %.03661, ptr nonnull align 1 %50, i64 %47, i1 false)
  store i64 0, ptr %40, align 8, !tbaa !58
  store i32 0, ptr %8, align 8, !tbaa !59
  store i64 0, ptr %45, align 8, !tbaa !60
  %.pre64 = load i64, ptr %4, align 8, !tbaa !40
  %51 = add i64 %.pre64, %47
  store i64 %51, ptr %4, align 8, !tbaa !40
  br label %57

52:                                               ; preds = %42
  tail call void @llvm.memcpy.p0.p0.i64(ptr align 1 %.03661, ptr nonnull align 1 %50, i64 %44, i1 false)
  %53 = load i64, ptr %40, align 8, !tbaa !58
  %54 = add i64 %53, %44
  store i64 %54, ptr %40, align 8, !tbaa !58
  %55 = load i64, ptr %4, align 8, !tbaa !40
  %56 = add i64 %55, %44
  store i64 %56, ptr %4, align 8, !tbaa !40
  br label %57

57:                                               ; preds = %52, %_ZL21tsi_fake_frame_encodePhPmP14tsi_fake_framePNSt7__cxx1112basic_stringIcSt11char_traitsIcESaIcEEE.exit47.thread, %39, %37, %25, %35
  %.0 = phi i32 [ %spec.store.select, %35 ], [ 0, %25 ], [ 7, %37 ], [ 7, %39 ], [ 0, %52 ], [ 0, %_ZL21tsi_fake_frame_encodePhPmP14tsi_fake_framePNSt7__cxx1112basic_stringIcSt11char_traitsIcESaIcEEE.exit47.thread ]
  ret i32 %.0
}